target datalayout = "e-m:e-p270:32:32-p271:32:32-p272:64:64-i64:64-i128:128-f80:128-n8:16:32:64-S128"
target triple = "x86_64-pc-linux-gnu"

%struct.ident_t = type { i32, i32, i32, i32, ptr }
%"struct.faiss::ClusteringParameters" = type { i32, i32, i8, i8, i8, i8, i8, i32, i32, i32, i64 }
%"class.std::vector" = type { %"struct.std::_Vector_base" }
%"struct.std::_Vector_base" = type { %"struct.std::_Vector_base<float, std::allocator<float>>::_Vector_impl" }
%"struct.std::_Vector_base<float, std::allocator<float>>::_Vector_impl" = type { %"struct.std::_Vector_base<float, std::allocator<float>>::_Vector_impl_data" }
%"struct.std::_Vector_base<float, std::allocator<float>>::_Vector_impl_data" = type { ptr, ptr, ptr }
%"struct.faiss::ProductQuantizer" = type { %"struct.faiss::Quantizer", i64, i64, i64, i64, i8, i32, %"struct.faiss::ClusteringParameters", ptr, %"class.std::vector", %"class.std::vector", %"class.std::vector", %"class.std::vector" }
%"struct.faiss::Quantizer" = type { ptr, i64, i64 }

@1 = private unnamed_addr constant %struct.ident_t { i32 0, i32 514, i32 0, i32 22, ptr @0 }, align 8

; Function Attrs: mustprogress nounwind uwtable
define linkonce_odr noundef nonnull align 4 dereferenceable(4) ptr @_ZNKSt6vectorIfSaIfEEixEm(ptr noundef nonnull align 8 dereferenceable(24) %0, i64 noundef %1) #1 comdat align 2 {
  %3 = alloca ptr, align 8
  %4 = alloca i64, align 8
  store ptr %0, ptr %3, align 8
  store i64 %1, ptr %4, align 8
  %5 = load ptr, ptr %3, align 8
  %6 = getelementptr inbounds %"struct.std::_Vector_base", ptr %5, i32 0, i32 0
  %7 = getelementptr inbounds %"struct.std::_Vector_base<float, std::allocator<float>>::_Vector_impl_data", ptr %6, i32 0, i32 0
  %8 = load ptr, ptr %7, align 8
  %9 = load i64, ptr %4, align 8
  %10 = getelementptr inbounds float, ptr %8, i64 %9
  ret ptr %10
}

; Function Attrs: mustprogress nounwind uwtable
define linkonce_odr noundef ptr @_ZNK5faiss16ProductQuantizer13get_centroidsEmm(ptr noundef nonnull align 8 dereferenceable(208) %0, i64 noundef %1, i64 noundef %2) #1 comdat align 2 {
  %4 = alloca ptr, align 8
  %5 = alloca i64, align 8
  %6 = alloca i64, align 8
  store ptr %0, ptr %4, align 8
  store i64 %1, ptr %5, align 8
  store i64 %2, ptr %6, align 8
  %7 = load ptr, ptr %4, align 8
  %8 = getelementptr inbounds %"struct.faiss::ProductQuantizer", ptr %7, i32 0, i32 9
  %9 = load i64, ptr %5, align 8
  %10 = getelementptr inbounds %"struct.faiss::ProductQuantizer", ptr %7, i32 0, i32 4
  %11 = load i64, ptr %10, align 8
  %12 = mul i64 %9, %11
  %13 = load i64, ptr %6, align 8
  %14 = add i64 %12, %13
  %15 = getelementptr inbounds %"struct.faiss::ProductQuantizer", ptr %7, i32 0, i32 3
  %16 = load i64, ptr %15, align 8
  %17 = mul i64 %14, %16
  %18 = call noundef nonnull align 4 dereferenceable(4) ptr @_ZNKSt6vectorIfSaIfEEixEm(ptr noundef nonnull align 8 dereferenceable(24) %8, i64 noundef %17) #12
  ret ptr %18
}

; Function Attrs: mustprogress uwtable
define void @_ZNK5faiss16ProductQuantizer24compute_inner_prod_tableEPKfPf(ptr noundef nonnull align 8 dereferenceable(208) %0, ptr noundef %1, ptr noundef %2) #0 align 2 {
  %4 = alloca ptr, align 8
  %5 = alloca ptr, align 8
  %6 = alloca ptr, align 8
  %7 = alloca i64, align 8
  store ptr %0, ptr %4, align 8
  store ptr %1, ptr %5, align 8
  store ptr %2, ptr %6, align 8
  %8 = load ptr, ptr %4, align 8
  store i64 0, ptr %7, align 8
  br label %9

9:                                                ; preds = %33, %3
  %10 = load i64, ptr %7, align 8
  %11 = getelementptr inbounds %"struct.faiss::ProductQuantizer", ptr %8, i32 0, i32 1
  %12 = load i64, ptr %11, align 8
  %13 = icmp ult i64 %10, %12
  br i1 %13, label %14, label %36

14:                                               ; preds = %9
  %15 = load ptr, ptr %6, align 8
  %16 = load i64, ptr %7, align 8
  %17 = getelementptr inbounds %"struct.faiss::ProductQuantizer", ptr %8, i32 0, i32 4
  %18 = load i64, ptr %17, align 8
  %19 = mul i64 %16, %18
  %20 = getelementptr inbounds float, ptr %15, i64 %19
  %21 = load ptr, ptr %5, align 8
  %22 = load i64, ptr %7, align 8
  %23 = getelementptr inbounds %"struct.faiss::ProductQuantizer", ptr %8, i32 0, i32 3
  %24 = load i64, ptr %23, align 8
  %25 = mul i64 %22, %24
  %26 = getelementptr inbounds float, ptr %21, i64 %25
  %27 = load i64, ptr %7, align 8
  %28 = call noundef ptr @_ZNK5faiss16ProductQuantizer13get_centroidsEmm(ptr noundef nonnull align 8 dereferenceable(208) %8, i64 noundef %27, i64 noundef 0)
  %29 = getelementptr inbounds %"struct.faiss::ProductQuantizer", ptr %8, i32 0, i32 3
  %30 = load i64, ptr %29, align 8
  %31 = getelementptr inbounds %"struct.faiss::ProductQuantizer", ptr %8, i32 0, i32 4
  %32 = load i64, ptr %31, align 8
  call void @_ZN5faiss22fvec_inner_products_nyEPfPKfS2_mm(ptr noundef %20, ptr noundef %26, ptr noundef %28, i64 noundef %30, i64 noundef %32)
  br label %33

33:                                               ; preds = %14
  %34 = load i64, ptr %7, align 8
  %35 = add i64 %34, 1
  store i64 %35, ptr %7, align 8
  br label %9, !llvm.loop !41

36:                                               ; preds = %9
  ret void
}

; Function Attrs: norecurse nounwind uwtable
define internal void @_ZNK5faiss16ProductQuantizer25compute_inner_prod_tablesEmPKfPf.omp_outlined(ptr noalias noundef %0, ptr noalias noundef %1, ptr noundef nonnull align 8 dereferenceable(8) %2, ptr noundef %3, ptr noundef nonnull align 8 dereferenceable(8) %4, ptr noundef nonnull align 8 dereferenceable(8) %5) #11 personality ptr @__gxx_personality_v0 {
  %7 = alloca ptr, align 8
  %8 = alloca ptr, align 8
  %9 = alloca ptr, align 8
  %10 = alloca ptr, align 8
  %11 = alloca ptr, align 8
  %12 = alloca ptr, align 8
  %13 = alloca i64, align 8
  %14 = alloca i64, align 8
  %15 = alloca i64, align 8
  %16 = alloca i64, align 8
  %17 = alloca i64, align 8
  %18 = alloca i64, align 8
  %19 = alloca i64, align 8
  %20 = alloca i32, align 4
  %21 = alloca i64, align 8
  store ptr %0, ptr %7, align 8
  store ptr %1, ptr %8, align 8
  store ptr %2, ptr %9, align 8
  store ptr %3, ptr %10, align 8
  store ptr %4, ptr %11, align 8
  store ptr %5, ptr %12, align 8
  %22 = load ptr, ptr %9, align 8
  %23 = load ptr, ptr %10, align 8
  %24 = load ptr, ptr %11, align 8
  %25 = load ptr, ptr %12, align 8
  %26 = load i64, ptr %22, align 8
  store i64 %26, ptr %14, align 8
  %27 = load i64, ptr %14, align 8
  %28 = sub i64 %27, 0
  %29 = udiv i64 %28, 1
  %30 = sub i64 %29, 1
  store i64 %30, ptr %15, align 8
  store i64 0, ptr %16, align 8
  %31 = load i64, ptr %14, align 8
  %32 = icmp ult i64 0, %31
  br i1 %32, label %33, label %80

33:                                               ; preds = %6
  store i64 0, ptr %17, align 8
  %34 = load i64, ptr %15, align 8
  store i64 %34, ptr %18, align 8
  store i64 1, ptr %19, align 8
  store i32 0, ptr %20, align 4
  %35 = load ptr, ptr %7, align 8
  %36 = load i32, ptr %35, align 4
  call void @__kmpc_for_static_init_8u(ptr @1, i32 %36, i32 34, ptr %20, ptr %17, ptr %18, ptr %19, i64 1, i64 1)
  %37 = load i64, ptr %18, align 8
  %38 = load i64, ptr %15, align 8
  %39 = icmp ugt i64 %37, %38
  br i1 %39, label %40, label %42

40:                                               ; preds = %33
  %41 = load i64, ptr %15, align 8
  br label %44

42:                                               ; preds = %33
  %43 = load i64, ptr %18, align 8
  br label %44

44:                                               ; preds = %42, %40
  %45 = phi i64 [ %41, %40 ], [ %43, %42 ]
  store i64 %45, ptr %18, align 8
  %46 = load i64, ptr %17, align 8
  store i64 %46, ptr %13, align 8
  br label %47

47:                                               ; preds = %73, %44
  %48 = load i64, ptr %13, align 8
  %49 = load i64, ptr %18, align 8
  %50 = add i64 %49, 1
  %51 = icmp ult i64 %48, %50
  br i1 %51, label %52, label %76

52:                                               ; preds = %47
  %53 = load i64, ptr %13, align 8
  %54 = mul i64 %53, 1
  %55 = add i64 0, %54
  store i64 %55, ptr %21, align 8
  %56 = load ptr, ptr %24, align 8
  %57 = load i64, ptr %21, align 8
  %58 = getelementptr inbounds %"struct.faiss::Quantizer", ptr %23, i32 0, i32 1
  %59 = load i64, ptr %58, align 8
  %60 = mul i64 %57, %59
  %61 = getelementptr inbounds float, ptr %56, i64 %60
  %62 = load ptr, ptr %25, align 8
  %63 = load i64, ptr %21, align 8
  %64 = getelementptr inbounds %"struct.faiss::ProductQuantizer", ptr %23, i32 0, i32 4
  %65 = load i64, ptr %64, align 8
  %66 = mul i64 %63, %65
  %67 = getelementptr inbounds %"struct.faiss::ProductQuantizer", ptr %23, i32 0, i32 1
  %68 = load i64, ptr %67, align 8
  %69 = mul i64 %66, %68
  %70 = getelementptr inbounds float, ptr %62, i64 %69
  invoke void @_ZNK5faiss16ProductQuantizer24compute_inner_prod_tableEPKfPf(ptr noundef nonnull align 8 dereferenceable(208) %23, ptr noundef %61, ptr noundef %70)
          to label %71 unwind label %81

71:                                               ; preds = %52
  br label %72

72:                                               ; preds = %71
  br label %73

73:                                               ; preds = %72
  %74 = load i64, ptr %13, align 8
  %75 = add i64 %74, 1
  store i64 %75, ptr %13, align 8
  br label %47

76:                                               ; preds = %47
  br label %77

77:                                               ; preds = %76
  %78 = load ptr, ptr %7, align 8
  %79 = load i32, ptr %78, align 4
  call void @__kmpc_for_static_fini(ptr @1, i32 %79)
  br label %80

80:                                               ; preds = %77, %6
  ret void

81:                                               ; preds = %52
  %82 = landingpad { ptr, i32 }
          catch ptr null
  %83 = extractvalue { ptr, i32 } %82, 0
  call void @__clang_call_terminate(ptr %83) #16
  unreachable
}