; Function Attrs: norecurse nounwind uwtable
define internal void @_ZNK5faiss16ProductQuantizer25compute_inner_prod_tablesEmPKfPf.omp_outlined(ptr noalias nocapture noundef readonly %0, ptr noalias nocapture readnone %1, ptr nocapture noundef nonnull readonly align 8 dereferenceable(8) %2, ptr nocapture noundef readonly %3, ptr nocapture noundef nonnull readonly align 8 dereferenceable(8) %4, ptr nocapture noundef nonnull readonly align 8 dereferenceable(8) %5) #15 personality ptr @__gxx_personality_v0 {
  %7 = alloca i64, align 8
  %8 = alloca i64, align 8
  %9 = alloca i64, align 8
  %10 = alloca i32, align 4
  %11 = load i64, ptr %2, align 8
  %.not = icmp eq i64 %11, 0
  br i1 %.not, label %53, label %12

12:                                               ; preds = %6
  %13 = add i64 %11, -1
  store i64 0, ptr %7, align 8
  store i64 %13, ptr %8, align 8
  store i64 1, ptr %9, align 8
  store i32 0, ptr %10, align 4
  %14 = load i32, ptr %0, align 4
  call void @__kmpc_for_static_init_8u(ptr nonnull @1, i32 %14, i32 34, ptr nonnull %10, ptr nonnull %7, ptr nonnull %8, ptr nonnull %9, i64 1, i64 1)
  %15 = load i64, ptr %8, align 8
  %16 = call i64 @llvm.umin.i64(i64 %15, i64 %13)
  store i64 %16, ptr %8, align 8
  %17 = load i64, ptr %7, align 8
  %.not17 = icmp ugt i64 %17, %16
  br i1 %.not17, label %._crit_edge, label %.lr.ph

.lr.ph:                                           ; preds = %12
  %18 = getelementptr inbounds i8, ptr %3, i64 8
  %19 = getelementptr inbounds i8, ptr %3, i64 48
  %20 = getelementptr inbounds i8, ptr %3, i64 24
  %21 = getelementptr inbounds i8, ptr %3, i64 40
  %22 = getelementptr inbounds i8, ptr %3, i64 112
  %23 = load i64, ptr %20, align 8
  %24 = icmp eq i64 %23, 0
  br i1 %24, label %._crit_edge, label %.lr.ph.split

.lr.ph.split:                                     ; preds = %.lr.ph, %_ZNK5faiss16ProductQuantizer24compute_inner_prod_tableEPKfPf.exit
  %25 = phi i64 [ %48, %_ZNK5faiss16ProductQuantizer24compute_inner_prod_tableEPKfPf.exit ], [ %16, %.lr.ph ]
  %26 = phi i64 [ %49, %_ZNK5faiss16ProductQuantizer24compute_inner_prod_tableEPKfPf.exit ], [ %23, %.lr.ph ]
  %.015 = phi i64 [ %50, %_ZNK5faiss16ProductQuantizer24compute_inner_prod_tableEPKfPf.exit ], [ %17, %.lr.ph ]
  %27 = load ptr, ptr %4, align 8
  %28 = load i64, ptr %18, align 8
  %29 = mul i64 %28, %.015
  %30 = getelementptr inbounds float, ptr %27, i64 %29
  %31 = load ptr, ptr %5, align 8
  %32 = load i64, ptr %19, align 8
  %33 = mul i64 %32, %.015
  %34 = mul i64 %33, %26
  %35 = getelementptr inbounds float, ptr %31, i64 %34
  %.not.i = icmp eq i64 %26, 0
  br i1 %.not.i, label %_ZNK5faiss16ProductQuantizer24compute_inner_prod_tableEPKfPf.exit, label %.lr.ph.i

.lr.ph.i:                                         ; preds = %.lr.ph.split, %.noexc
  %.07.i = phi i64 [ %45, %.noexc ], [ 0, %.lr.ph.split ]
  %36 = load i64, ptr %19, align 8
  %37 = mul i64 %36, %.07.i
  %38 = getelementptr inbounds float, ptr %35, i64 %37
  %39 = load i64, ptr %21, align 8
  %40 = mul i64 %39, %.07.i
  %41 = getelementptr inbounds float, ptr %30, i64 %40
  %42 = mul i64 %37, %39
  %43 = load ptr, ptr %22, align 8
  %44 = getelementptr inbounds float, ptr %43, i64 %42
  invoke void @_ZN5faiss22fvec_inner_products_nyEPfPKfS2_mm(ptr noundef %38, ptr noundef %41, ptr noundef %44, i64 noundef %39, i64 noundef %36)
          to label %.noexc unwind label %54

.noexc:                                           ; preds = %.lr.ph.i
  %45 = add nuw i64 %.07.i, 1
  %46 = load i64, ptr %20, align 8
  %47 = icmp ult i64 %45, %46
  br i1 %47, label %.lr.ph.i, label %_ZNK5faiss16ProductQuantizer24compute_inner_prod_tableEPKfPf.exit.loopexit, !llvm.loop !44

_ZNK5faiss16ProductQuantizer24compute_inner_prod_tableEPKfPf.exit.loopexit: ; preds = %.noexc
  %.pre = load i64, ptr %8, align 8
  br label %_ZNK5faiss16ProductQuantizer24compute_inner_prod_tableEPKfPf.exit

_ZNK5faiss16ProductQuantizer24compute_inner_prod_tableEPKfPf.exit: ; preds = %_ZNK5faiss16ProductQuantizer24compute_inner_prod_tableEPKfPf.exit.loopexit, %.lr.ph.split
  %48 = phi i64 [ %.pre, %_ZNK5faiss16ProductQuantizer24compute_inner_prod_tableEPKfPf.exit.loopexit ], [ %25, %.lr.ph.split ]
  %49 = phi i64 [ %46, %_ZNK5faiss16ProductQuantizer24compute_inner_prod_tableEPKfPf.exit.loopexit ], [ 0, %.lr.ph.split ]
  %50 = add nuw i64 %.015, 1
  %51 = add i64 %48, 1
  %52 = icmp ult i64 %50, %51
  br i1 %52, label %.lr.ph.split, label %._crit_edge, !llvm.loop !46

._crit_edge:                                      ; preds = %_ZNK5faiss16ProductQuantizer24compute_inner_prod_tableEPKfPf.exit, %.lr.ph, %12
  call void @__kmpc_for_static_fini(ptr nonnull @1, i32 %14)
  br label %53

53:                                               ; preds = %._crit_edge, %6
  ret void

54:                                               ; preds = %.lr.ph.i
  %55 = landingpad { ptr, i32 }
          catch ptr null
  %56 = extractvalue { ptr, i32 } %55, 0
  call void @__clang_call_terminate(ptr %56) #26
  unreachable
}